; ModuleID = '50/2311.c'
source_filename = "50/2311.c"
target datalayout = "e-m:e-p270:32:32-p271:32:32-p272:64:64-i64:64-f80:128-n8:16:32:64-S128"
target triple = "x86_64-pc-linux-gnu"

@__const.main.days = private unnamed_addr constant [12 x i32] [i32 31, i32 28, i32 31, i32 30, i32 31, i32 30, i32 31, i32 31, i32 30, i32 31, i32 30, i32 31], align 16
@.str = private unnamed_addr constant [3 x i8] c"%d\00", align 1
@.str.1 = private unnamed_addr constant [4 x i8] c"%d\0A\00", align 1

; Function Attrs: noinline nounwind uwtable
define dso_local i32 @main() #0 {
  %1 = alloca i32, align 4
  %2 = alloca i32, align 4
  %3 = alloca [12 x i32], align 16
  %4 = alloca i32, align 4
  %5 = alloca i32, align 4
  %6 = alloca [12 x i32], align 16
  store i32 0, i32* %1, align 4
  %7 = bitcast [12 x i32]* %3 to i8*
  call void @llvm.memcpy.p0i8.p0i8.i64(i8* align 16 %7, i8* align 16 bitcast ([12 x i32]* @__const.main.days to i8*), i64 48, i1 false)
  %8 = bitcast [12 x i32]* %6 to i8*
  call void @llvm.memset.p0i8.i64(i8* align 16 %8, i8 0, i64 48, i1 false)
  %9 = call i32 (i8*, ...) @__isoc99_scanf(i8* getelementptr inbounds ([3 x i8], [3 x i8]* @.str, i64 0, i64 0), i32* %2)
  %10 = load i32, i32* %2, align 4
  %11 = add nsw i32 %10, 5
  %12 = getelementptr inbounds [12 x i32], [12 x i32]* %6, i64 0, i64 0
  store i32 %11, i32* %12, align 16
  br label %13

13:                                               ; preds = %17, %0
  %14 = getelementptr inbounds [12 x i32], [12 x i32]* %6, i64 0, i64 0
  %15 = load i32, i32* %14, align 16
  %16 = icmp sgt i32 %15, 7
  br i1 %16, label %17, label %22

17:                                               ; preds = %13
  %18 = getelementptr inbounds [12 x i32], [12 x i32]* %6, i64 0, i64 0
  %19 = load i32, i32* %18, align 16
  %20 = sub nsw i32 %19, 7
  %21 = getelementptr inbounds [12 x i32], [12 x i32]* %6, i64 0, i64 0
  store i32 %20, i32* %21, align 16
  br label %13

22:                                               ; preds = %13
  store i32 1, i32* %4, align 4
  br label %23

23:                                               ; preds = %58, %22
  %24 = load i32, i32* %4, align 4
  %25 = icmp slt i32 %24, 12
  br i1 %25, label %26, label %61

26:                                               ; preds = %23
  %27 = load i32, i32* %4, align 4
  %28 = sub nsw i32 %27, 1
  %29 = sext i32 %28 to i64
  %30 = getelementptr inbounds [12 x i32], [12 x i32]* %3, i64 0, i64 %29
  %31 = load i32, i32* %30, align 4
  %32 = srem i32 %31, 7
  %33 = load i32, i32* %4, align 4
  %34 = sub nsw i32 %33, 1
  %35 = sext i32 %34 to i64
  %36 = getelementptr inbounds [12 x i32], [12 x i32]* %6, i64 0, i64 %35
  %37 = load i32, i32* %36, align 4
  %38 = add nsw i32 %32, %37
  %39 = load i32, i32* %4, align 4
  %40 = sext i32 %39 to i64
  %41 = getelementptr inbounds [12 x i32], [12 x i32]* %6, i64 0, i64 %40
  store i32 %38, i32* %41, align 4
  br label %42

42:                                               ; preds = %48, %26
  %43 = load i32, i32* %4, align 4
  %44 = sext i32 %43 to i64
  %45 = getelementptr inbounds [12 x i32], [12 x i32]* %6, i64 0, i64 %44
  %46 = load i32, i32* %45, align 4
  %47 = icmp sgt i32 %46, 7
  br i1 %47, label %48, label %57

48:                                               ; preds = %42
  %49 = load i32, i32* %4, align 4
  %50 = sext i32 %49 to i64
  %51 = getelementptr inbounds [12 x i32], [12 x i32]* %6, i64 0, i64 %50
  %52 = load i32, i32* %51, align 4
  %53 = sub nsw i32 %52, 7
  %54 = load i32, i32* %4, align 4
  %55 = sext i32 %54 to i64
  %56 = getelementptr inbounds [12 x i32], [12 x i32]* %6, i64 0, i64 %55
  store i32 %53, i32* %56, align 4
  br label %42

57:                                               ; preds = %42
  br label %58

58:                                               ; preds = %57
  %59 = load i32, i32* %4, align 4
  %60 = add nsw i32 %59, 1
  store i32 %60, i32* %4, align 4
  br label %23

61:                                               ; preds = %23
  store i32 0, i32* %4, align 4
  br label %62

62:                                               ; preds = %76, %61
  %63 = load i32, i32* %4, align 4
  %64 = icmp slt i32 %63, 12
  br i1 %64, label %65, label %79

65:                                               ; preds = %62
  %66 = load i32, i32* %4, align 4
  %67 = sext i32 %66 to i64
  %68 = getelementptr inbounds [12 x i32], [12 x i32]* %6, i64 0, i64 %67
  %69 = load i32, i32* %68, align 4
  %70 = icmp eq i32 %69, 5
  br i1 %70, label %71, label %75

71:                                               ; preds = %65
  %72 = load i32, i32* %4, align 4
  %73 = add nsw i32 %72, 1
  %74 = call i32 (i8*, ...) @printf(i8* getelementptr inbounds ([4 x i8], [4 x i8]* @.str.1, i64 0, i64 0), i32 %73)
  br label %75

75:                                               ; preds = %71, %65
  br label %76

76:                                               ; preds = %75
  %77 = load i32, i32* %4, align 4
  %78 = add nsw i32 %77, 1
  store i32 %78, i32* %4, align 4
  br label %62

79:                                               ; preds = %62
  ret i32 0
}

; Function Attrs: argmemonly nounwind willreturn
declare void @llvm.memcpy.p0i8.p0i8.i64(i8* noalias nocapture writeonly, i8* noalias nocapture readonly, i64, i1 immarg) #1

; Function Attrs: argmemonly nounwind willreturn
declare void @llvm.memset.p0i8.i64(i8* nocapture writeonly, i8, i64, i1 immarg) #1

declare dso_local i32 @__isoc99_scanf(i8*, ...) #2

declare dso_local i32 @printf(i8*, ...) #2


!llvm.module.flags = !{!0}
!llvm.ident = !{!1}

!0 = !{i32 1, !"wchar_size", i32 4}
!1 = !{!"clang version 10.0.0-4ubuntu1 "}
